; Function Attrs: mustprogress nofree norecurse nosync nounwind willreturn memory(read, inaccessiblemem: none) uwtable
define hidden noundef zeroext i1 @_ZN20RangeCheckEliminator14loop_invariantEP10BlockBeginP11Instruction(ptr nocapture noundef nonnull readnone align 8 dereferenceable(88) %0, ptr nocapture noundef readonly %1, ptr noundef readonly %2) local_unnamed_addr #6 align 2 {
  %.not = icmp eq ptr %2, null
  br i1 %.not, label %.loopexit, label %.preheader

.preheader:                                       ; preds = %3
  %4 = getelementptr inbounds i8, ptr %2, i64 88
  br label %5

5:                                                ; preds = %.preheader, %6
  %.pn = phi ptr [ %.0, %6 ], [ %1, %.preheader ]
  %.0.in = getelementptr inbounds i8, ptr %.pn, i64 208
  %.0 = load ptr, ptr %.0.in, align 8
  %.not9.not = icmp ne ptr %.0, null
  br i1 %.not9.not, label %6, label %.loopexit

6:                                                ; preds = %5
  %7 = load ptr, ptr %4, align 8
  %8 = icmp eq ptr %.0, %7
  br i1 %8, label %.loopexit, label %5, !llvm.loop !16

.loopexit:                                        ; preds = %5, %6, %3
  %.07 = phi i1 [ true, %3 ], [ %.not9.not, %6 ], [ %.not9.not, %5 ]
  ret i1 %.07
}